target datalayout = "e-m:e-p270:32:32-p271:32:32-p272:64:64-i64:64-i128:128-f80:128-n8:16:32:64-S128"
target triple = "x86_64-pc-linux-gnu"

%struct.Gia_ParSim_t_ = type { i32, i32, i32, i32, i32, i32, i32 }

; Function Attrs: nounwind uwtable
define void @Gia_ManSimSetDefaultParams(ptr noundef %0) #0 {
  %2 = alloca ptr, align 8
  store ptr %0, ptr %2, align 8, !tbaa !53
  %3 = load ptr, ptr %2, align 8, !tbaa !53
  call void @llvm.memset.p0.i64(ptr align 4 %3, i8 0, i64 28, i1 false)
  %4 = load ptr, ptr %2, align 8, !tbaa !53
  %5 = getelementptr inbounds nuw %struct.Gia_ParSim_t_, ptr %4, i32 0, i32 0
  store i32 8, ptr %5, align 4, !tbaa !54
  %6 = load ptr, ptr %2, align 8, !tbaa !53
  %7 = getelementptr inbounds nuw %struct.Gia_ParSim_t_, ptr %6, i32 0, i32 1
  store i32 32, ptr %7, align 4, !tbaa !56
  %8 = load ptr, ptr %2, align 8, !tbaa !53
  %9 = getelementptr inbounds nuw %struct.Gia_ParSim_t_, ptr %8, i32 0, i32 2
  store i32 0, ptr %9, align 4, !tbaa !57
  %10 = load ptr, ptr %2, align 8, !tbaa !53
  %11 = getelementptr inbounds nuw %struct.Gia_ParSim_t_, ptr %10, i32 0, i32 3
  store i32 60, ptr %11, align 4, !tbaa !58
  %12 = load ptr, ptr %2, align 8, !tbaa !53
  %13 = getelementptr inbounds nuw %struct.Gia_ParSim_t_, ptr %12, i32 0, i32 4
  store i32 0, ptr %13, align 4, !tbaa !59
  %14 = load ptr, ptr %2, align 8, !tbaa !53
  %15 = getelementptr inbounds nuw %struct.Gia_ParSim_t_, ptr %14, i32 0, i32 5
  store i32 0, ptr %15, align 4, !tbaa !60
  %16 = load ptr, ptr %2, align 8, !tbaa !53
  %17 = getelementptr inbounds nuw %struct.Gia_ParSim_t_, ptr %16, i32 0, i32 6
  store i32 -1, ptr %17, align 4, !tbaa !61
  ret void
}