; Function Attrs: mustprogress nofree norecurse nosync nounwind willreturn memory(argmem: write) uwtable
define void @Gia_ManSimSetDefaultParams(ptr noundef writeonly captures(none) initializes((0, 28)) %0) local_unnamed_addr #4 {
  store i32 8, ptr %0, align 4, !tbaa !50
  %2 = getelementptr inbounds nuw i8, ptr %0, i64 4
  store i32 32, ptr %2, align 4, !tbaa !52
  %3 = getelementptr inbounds nuw i8, ptr %0, i64 8
  store i32 0, ptr %3, align 4, !tbaa !53
  %4 = getelementptr inbounds nuw i8, ptr %0, i64 12
  store i32 60, ptr %4, align 4, !tbaa !54
  %5 = getelementptr inbounds nuw i8, ptr %0, i64 16
  store i32 0, ptr %5, align 4, !tbaa !55
  %6 = getelementptr inbounds nuw i8, ptr %0, i64 20
  store i32 0, ptr %6, align 4, !tbaa !56
  %7 = getelementptr inbounds nuw i8, ptr %0, i64 24
  store i32 -1, ptr %7, align 4, !tbaa !57
  ret void
}